; ModuleID = '63/571.c'
source_filename = "63/571.c"
target datalayout = "e-m:e-p270:32:32-p271:32:32-p272:64:64-i64:64-f80:128-n8:16:32:64-S128"
target triple = "x86_64-pc-linux-gnu"

@.str = private unnamed_addr constant [6 x i8] c"%d %d\00", align 1
@.str.1 = private unnamed_addr constant [3 x i8] c"%d\00", align 1
@.str.2 = private unnamed_addr constant [4 x i8] c" %d\00", align 1
@.str.3 = private unnamed_addr constant [2 x i8] c"\0A\00", align 1

; Function Attrs: noinline nounwind uwtable
define dso_local i32 @main() #0 {
  %1 = alloca i32, align 4
  %2 = alloca i32, align 4
  %3 = alloca i32, align 4
  %4 = alloca i32, align 4
  %5 = alloca i32, align 4
  %6 = alloca i32, align 4
  %7 = alloca i32, align 4
  %8 = alloca i32, align 4
  %9 = alloca [101 x [101 x i32]], align 16
  %10 = alloca [101 x [101 x i32]], align 16
  %11 = alloca [101 x [101 x i32]], align 16
  %12 = alloca i32, align 4
  %13 = alloca i32, align 4
  %14 = alloca i32, align 4
  store i32 0, i32* %1, align 4
  %15 = call i32 (i8*, ...) @__isoc99_scanf(i8* getelementptr inbounds ([6 x i8], [6 x i8]* @.str, i64 0, i64 0), i32* %2, i32* %4)
  store i32 0, i32* %12, align 4
  br label %16

16:                                               ; preds = %37, %0
  %17 = load i32, i32* %12, align 4
  %18 = load i32, i32* %2, align 4
  %19 = icmp slt i32 %17, %18
  br i1 %19, label %20, label %40

20:                                               ; preds = %16
  store i32 0, i32* %13, align 4
  br label %21

21:                                               ; preds = %33, %20
  %22 = load i32, i32* %13, align 4
  %23 = load i32, i32* %4, align 4
  %24 = icmp slt i32 %22, %23
  br i1 %24, label %25, label %36

25:                                               ; preds = %21
  %26 = load i32, i32* %12, align 4
  %27 = sext i32 %26 to i64
  %28 = getelementptr inbounds [101 x [101 x i32]], [101 x [101 x i32]]* %9, i64 0, i64 %27
  %29 = load i32, i32* %13, align 4
  %30 = sext i32 %29 to i64
  %31 = getelementptr inbounds [101 x i32], [101 x i32]* %28, i64 0, i64 %30
  %32 = call i32 (i8*, ...) @__isoc99_scanf(i8* getelementptr inbounds ([3 x i8], [3 x i8]* @.str.1, i64 0, i64 0), i32* %31)
  br label %33

33:                                               ; preds = %25
  %34 = load i32, i32* %13, align 4
  %35 = add nsw i32 %34, 1
  store i32 %35, i32* %13, align 4
  br label %21

36:                                               ; preds = %21
  br label %37

37:                                               ; preds = %36
  %38 = load i32, i32* %12, align 4
  %39 = add nsw i32 %38, 1
  store i32 %39, i32* %12, align 4
  br label %16

40:                                               ; preds = %16
  %41 = call i32 (i8*, ...) @__isoc99_scanf(i8* getelementptr inbounds ([6 x i8], [6 x i8]* @.str, i64 0, i64 0), i32* %3, i32* %5)
  store i32 0, i32* %12, align 4
  br label %42

42:                                               ; preds = %63, %40
  %43 = load i32, i32* %12, align 4
  %44 = load i32, i32* %3, align 4
  %45 = icmp slt i32 %43, %44
  br i1 %45, label %46, label %66

46:                                               ; preds = %42
  store i32 0, i32* %13, align 4
  br label %47

47:                                               ; preds = %59, %46
  %48 = load i32, i32* %13, align 4
  %49 = load i32, i32* %5, align 4
  %50 = icmp slt i32 %48, %49
  br i1 %50, label %51, label %62

51:                                               ; preds = %47
  %52 = load i32, i32* %12, align 4
  %53 = sext i32 %52 to i64
  %54 = getelementptr inbounds [101 x [101 x i32]], [101 x [101 x i32]]* %10, i64 0, i64 %53
  %55 = load i32, i32* %13, align 4
  %56 = sext i32 %55 to i64
  %57 = getelementptr inbounds [101 x i32], [101 x i32]* %54, i64 0, i64 %56
  %58 = call i32 (i8*, ...) @__isoc99_scanf(i8* getelementptr inbounds ([3 x i8], [3 x i8]* @.str.1, i64 0, i64 0), i32* %57)
  br label %59

59:                                               ; preds = %51
  %60 = load i32, i32* %13, align 4
  %61 = add nsw i32 %60, 1
  store i32 %61, i32* %13, align 4
  br label %47

62:                                               ; preds = %47
  br label %63

63:                                               ; preds = %62
  %64 = load i32, i32* %12, align 4
  %65 = add nsw i32 %64, 1
  store i32 %65, i32* %12, align 4
  br label %42

66:                                               ; preds = %42
  store i32 0, i32* %12, align 4
  br label %67

67:                                               ; preds = %125, %66
  %68 = load i32, i32* %12, align 4
  %69 = load i32, i32* %2, align 4
  %70 = icmp slt i32 %68, %69
  br i1 %70, label %71, label %128

71:                                               ; preds = %67
  store i32 0, i32* %13, align 4
  br label %72

72:                                               ; preds = %121, %71
  %73 = load i32, i32* %13, align 4
  %74 = load i32, i32* %5, align 4
  %75 = icmp slt i32 %73, %74
  br i1 %75, label %76, label %124

76:                                               ; preds = %72
  %77 = load i32, i32* %12, align 4
  %78 = sext i32 %77 to i64
  %79 = getelementptr inbounds [101 x [101 x i32]], [101 x [101 x i32]]* %11, i64 0, i64 %78
  %80 = load i32, i32* %13, align 4
  %81 = sext i32 %80 to i64
  %82 = getelementptr inbounds [101 x i32], [101 x i32]* %79, i64 0, i64 %81
  store i32 0, i32* %82, align 4
  store i32 0, i32* %14, align 4
  br label %83

83:                                               ; preds = %117, %76
  %84 = load i32, i32* %14, align 4
  %85 = load i32, i32* %4, align 4
  %86 = icmp slt i32 %84, %85
  br i1 %86, label %87, label %120

87:                                               ; preds = %83
  %88 = load i32, i32* %12, align 4
  %89 = sext i32 %88 to i64
  %90 = getelementptr inbounds [101 x [101 x i32]], [101 x [101 x i32]]* %11, i64 0, i64 %89
  %91 = load i32, i32* %13, align 4
  %92 = sext i32 %91 to i64
  %93 = getelementptr inbounds [101 x i32], [101 x i32]* %90, i64 0, i64 %92
  %94 = load i32, i32* %93, align 4
  %95 = load i32, i32* %12, align 4
  %96 = sext i32 %95 to i64
  %97 = getelementptr inbounds [101 x [101 x i32]], [101 x [101 x i32]]* %9, i64 0, i64 %96
  %98 = load i32, i32* %14, align 4
  %99 = sext i32 %98 to i64
  %100 = getelementptr inbounds [101 x i32], [101 x i32]* %97, i64 0, i64 %99
  %101 = load i32, i32* %100, align 4
  %102 = load i32, i32* %14, align 4
  %103 = sext i32 %102 to i64
  %104 = getelementptr inbounds [101 x [101 x i32]], [101 x [101 x i32]]* %10, i64 0, i64 %103
  %105 = load i32, i32* %13, align 4
  %106 = sext i32 %105 to i64
  %107 = getelementptr inbounds [101 x i32], [101 x i32]* %104, i64 0, i64 %106
  %108 = load i32, i32* %107, align 4
  %109 = mul nsw i32 %101, %108
  %110 = add nsw i32 %94, %109
  %111 = load i32, i32* %12, align 4
  %112 = sext i32 %111 to i64
  %113 = getelementptr inbounds [101 x [101 x i32]], [101 x [101 x i32]]* %11, i64 0, i64 %112
  %114 = load i32, i32* %13, align 4
  %115 = sext i32 %114 to i64
  %116 = getelementptr inbounds [101 x i32], [101 x i32]* %113, i64 0, i64 %115
  store i32 %110, i32* %116, align 4
  br label %117

117:                                              ; preds = %87
  %118 = load i32, i32* %14, align 4
  %119 = add nsw i32 %118, 1
  store i32 %119, i32* %14, align 4
  br label %83

120:                                              ; preds = %83
  br label %121

121:                                              ; preds = %120
  %122 = load i32, i32* %13, align 4
  %123 = add nsw i32 %122, 1
  store i32 %123, i32* %13, align 4
  br label %72

124:                                              ; preds = %72
  br label %125

125:                                              ; preds = %124
  %126 = load i32, i32* %12, align 4
  %127 = add nsw i32 %126, 1
  store i32 %127, i32* %12, align 4
  br label %67

128:                                              ; preds = %67
  store i32 0, i32* %12, align 4
  br label %129

129:                                              ; preds = %158, %128
  %130 = load i32, i32* %12, align 4
  %131 = load i32, i32* %2, align 4
  %132 = icmp slt i32 %130, %131
  br i1 %132, label %133, label %161

133:                                              ; preds = %129
  %134 = load i32, i32* %12, align 4
  %135 = sext i32 %134 to i64
  %136 = getelementptr inbounds [101 x [101 x i32]], [101 x [101 x i32]]* %11, i64 0, i64 %135
  %137 = getelementptr inbounds [101 x i32], [101 x i32]* %136, i64 0, i64 0
  %138 = load i32, i32* %137, align 4
  %139 = call i32 (i8*, ...) @printf(i8* getelementptr inbounds ([3 x i8], [3 x i8]* @.str.1, i64 0, i64 0), i32 %138)
  store i32 1, i32* %13, align 4
  br label %140

140:                                              ; preds = %153, %133
  %141 = load i32, i32* %13, align 4
  %142 = load i32, i32* %5, align 4
  %143 = icmp slt i32 %141, %142
  br i1 %143, label %144, label %156

144:                                              ; preds = %140
  %145 = load i32, i32* %12, align 4
  %146 = sext i32 %145 to i64
  %147 = getelementptr inbounds [101 x [101 x i32]], [101 x [101 x i32]]* %11, i64 0, i64 %146
  %148 = load i32, i32* %13, align 4
  %149 = sext i32 %148 to i64
  %150 = getelementptr inbounds [101 x i32], [101 x i32]* %147, i64 0, i64 %149
  %151 = load i32, i32* %150, align 4
  %152 = call i32 (i8*, ...) @printf(i8* getelementptr inbounds ([4 x i8], [4 x i8]* @.str.2, i64 0, i64 0), i32 %151)
  br label %153

153:                                              ; preds = %144
  %154 = load i32, i32* %13, align 4
  %155 = add nsw i32 %154, 1
  store i32 %155, i32* %13, align 4
  br label %140

156:                                              ; preds = %140
  %157 = call i32 (i8*, ...) @printf(i8* getelementptr inbounds ([2 x i8], [2 x i8]* @.str.3, i64 0, i64 0))
  br label %158

158:                                              ; preds = %156
  %159 = load i32, i32* %12, align 4
  %160 = add nsw i32 %159, 1
  store i32 %160, i32* %12, align 4
  br label %129

161:                                              ; preds = %129
  %162 = call i32 @getchar()
  %163 = call i32 @getchar()
  %164 = call i32 @getchar()
  %165 = load i32, i32* %1, align 4
  ret i32 %165
}

declare dso_local i32 @__isoc99_scanf(i8*, ...) #1

declare dso_local i32 @printf(i8*, ...) #1

declare dso_local i32 @getchar() #1


!llvm.module.flags = !{!0}
!llvm.ident = !{!1}

!0 = !{i32 1, !"wchar_size", i32 4}
!1 = !{!"clang version 10.0.0-4ubuntu1 "}
